; ModuleID = '27/84.c'
source_filename = "27/84.c"
target datalayout = "e-m:e-p270:32:32-p271:32:32-p272:64:64-i64:64-f80:128-n8:16:32:64-S128"
target triple = "x86_64-pc-linux-gnu"

@.str = private unnamed_addr constant [3 x i8] c"%d\00", align 1
@.str.1 = private unnamed_addr constant [12 x i8] c"%lf %lf %lf\00", align 1
@.str.2 = private unnamed_addr constant [13 x i8] c"x1=x2=%.5lf\0A\00", align 1
@.str.3 = private unnamed_addr constant [10 x i8] c"x1=%.5lf;\00", align 1
@.str.4 = private unnamed_addr constant [10 x i8] c"x2=%.5lf\0A\00", align 1
@.str.5 = private unnamed_addr constant [17 x i8] c"x1=%.5lf+%.5lfi;\00", align 1
@.str.6 = private unnamed_addr constant [17 x i8] c"x2=%.5lf-%.5lfi\0A\00", align 1

; Function Attrs: noinline nounwind uwtable
define dso_local void @main() #0 {
  %1 = alloca i32, align 4
  %2 = alloca double, align 8
  %3 = alloca double, align 8
  %4 = alloca double, align 8
  %5 = alloca double, align 8
  %6 = alloca double, align 8
  %7 = alloca double, align 8
  %8 = alloca double, align 8
  %9 = alloca double, align 8
  %10 = call i32 (i8*, ...) @__isoc99_scanf(i8* getelementptr inbounds ([3 x i8], [3 x i8]* @.str, i64 0, i64 0), i32* %1)
  br label %11

11:                                               ; preds = %77, %0
  %12 = load i32, i32* %1, align 4
  %13 = add nsw i32 %12, -1
  store i32 %13, i32* %1, align 4
  %14 = icmp ne i32 %12, 0
  br i1 %14, label %15, label %78

15:                                               ; preds = %11
  %16 = call i32 (i8*, ...) @__isoc99_scanf(i8* getelementptr inbounds ([12 x i8], [12 x i8]* @.str.1, i64 0, i64 0), double* %2, double* %3, double* %4)
  %17 = load double, double* %3, align 8
  %18 = load double, double* %3, align 8
  %19 = fmul double %17, %18
  %20 = load double, double* %2, align 8
  %21 = fmul double 4.000000e+00, %20
  %22 = load double, double* %4, align 8
  %23 = fmul double %21, %22
  %24 = fsub double %19, %23
  store double %24, double* %5, align 8
  %25 = load double, double* %5, align 8
  %26 = fcmp oeq double %25, 0.000000e+00
  br i1 %26, label %27, label %34

27:                                               ; preds = %15
  %28 = load double, double* %3, align 8
  %29 = fneg double %28
  %30 = load double, double* %2, align 8
  %31 = fmul double 2.000000e+00, %30
  %32 = fdiv double %29, %31
  %33 = call i32 (i8*, ...) @printf(i8* getelementptr inbounds ([13 x i8], [13 x i8]* @.str.2, i64 0, i64 0), double %32)
  br label %77

34:                                               ; preds = %15
  %35 = load double, double* %5, align 8
  %36 = fcmp ogt double %35, 0.000000e+00
  br i1 %36, label %37, label %58

37:                                               ; preds = %34
  %38 = load double, double* %3, align 8
  %39 = fneg double %38
  %40 = load double, double* %5, align 8
  %41 = call double @sqrt(double %40) #3
  %42 = fadd double %39, %41
  %43 = load double, double* %2, align 8
  %44 = fmul double 2.000000e+00, %43
  %45 = fdiv double %42, %44
  store double %45, double* %6, align 8
  %46 = load double, double* %3, align 8
  %47 = fneg double %46
  %48 = load double, double* %5, align 8
  %49 = call double @sqrt(double %48) #3
  %50 = fsub double %47, %49
  %51 = load double, double* %2, align 8
  %52 = fmul double 2.000000e+00, %51
  %53 = fdiv double %50, %52
  store double %53, double* %7, align 8
  %54 = load double, double* %6, align 8
  %55 = call i32 (i8*, ...) @printf(i8* getelementptr inbounds ([10 x i8], [10 x i8]* @.str.3, i64 0, i64 0), double %54)
  %56 = load double, double* %7, align 8
  %57 = call i32 (i8*, ...) @printf(i8* getelementptr inbounds ([10 x i8], [10 x i8]* @.str.4, i64 0, i64 0), double %56)
  br label %76

58:                                               ; preds = %34
  %59 = load double, double* %3, align 8
  %60 = fneg double %59
  %61 = load double, double* %2, align 8
  %62 = fmul double 2.000000e+00, %61
  %63 = fdiv double %60, %62
  store double %63, double* %8, align 8
  %64 = load double, double* %5, align 8
  %65 = fneg double %64
  %66 = call double @sqrt(double %65) #3
  %67 = load double, double* %2, align 8
  %68 = fmul double 2.000000e+00, %67
  %69 = fdiv double %66, %68
  store double %69, double* %9, align 8
  %70 = load double, double* %8, align 8
  %71 = load double, double* %9, align 8
  %72 = call i32 (i8*, ...) @printf(i8* getelementptr inbounds ([17 x i8], [17 x i8]* @.str.5, i64 0, i64 0), double %70, double %71)
  %73 = load double, double* %8, align 8
  %74 = load double, double* %9, align 8
  %75 = call i32 (i8*, ...) @printf(i8* getelementptr inbounds ([17 x i8], [17 x i8]* @.str.6, i64 0, i64 0), double %73, double %74)
  br label %76

76:                                               ; preds = %58, %37
  br label %77

77:                                               ; preds = %76, %27
  br label %11

78:                                               ; preds = %11
  ret void
}

declare dso_local i32 @__isoc99_scanf(i8*, ...) #1

declare dso_local i32 @printf(i8*, ...) #1

; Function Attrs: nounwind
declare dso_local double @sqrt(double) #2


!llvm.module.flags = !{!0}
!llvm.ident = !{!1}

!0 = !{i32 1, !"wchar_size", i32 4}
!1 = !{!"clang version 10.0.0-4ubuntu1 "}
